Certificate:
    Data:
        Version: 3 (0x2)
        Serial Number: 1 (0x1)
    Signature Algorithm: sha256WithRSAEncryption
        Issuer: C=FR, ST=IDF, L=Paris, O=FoobarCA, CN=*.local.fr
        Validity
            Not Before: Aug 13 08:00:00 2015 GMT
            Not After : Aug 13 09:00:00 2025 GMT
        Subject: C=FR, ST=IDF, L=Paris, O=Foobar, OU=, CN=foobar.local.fr
        Subject Public Key Info:
            Public Key Algorithm: rsaEncryption
                Public-Key: (2048 bit)
                Modulus:
                    00:9e:f6:76:ad:21:f4:c2:17:a4:96:7f:ac:ae:37:
                    a1:f3:e3:32:1c:5e:23:e1:d7:7f:cf:85:cb:7b:2e:
                    b1:96:18:31:9c:59:cb:43:99:48:df:72:0d:77:35:
                    7f:cb:a6:da:78:47:8f:c3:47:72:1b:57:df:39:f4:
                    8d:22:4d:93:ca:a5:01:d9:d1:97:c0:83:34:09:bb:
                    db:0a:5d:f0:3c:61:e3:b9:15:da:5a:76:56:fa:52:
                    cd:13:20:ab:79:f4:f6:83:21:89:84:9c:07:d0:cb:
                    de:9a:e1:e5:1b:2c:0b:4d:1f:c7:42:86:66:fa:0d:
                    11:48:33:f5:2b:a4:cb:e6:11:97:71:81:d9:41:98:
                    c2:85:9e:bb:b2:69:d4:c9:43:d7:dd:8e:bd:c6:f1:
                    09:c7:0b:9c:df:4f:b3:a8:06:00:5b:82:80:88:ba:
                    04:12:2c:fc:64:e0:a0:c0:c8:d1:b6:03:18:bd:76:
                    62:2c:1e:5a:22:5a:e0:00:db:ae:29:38:a4:da:4b:
                    d5:90:5c:c3:54:04:5b:d3:b2:a9:5c:ee:04:cd:53:
                    0d:ef:8d:15:12:9d:44:48:84:37:cd:d2:f2:44:9e:
                    e5:a1:b3:fb:ed:bf:8f:7c:5a:ea:4a:fe:77:a0:66:
                    56:32:d8:3c:0d:b5:b1:18:56:df:75:ad:f9:86:86:
                    fc:1d
                Exponent: 65537 (0x10001)
        X509v3 extensions:
            X509v3 Basic Constraints: 
                CA:FALSE
            Netscape Comment: 
                OpenSSL Generated Certificate
            X509v3 Subject Key Identifier: 
                30:C2:FC:39:3E:70:EB:79:F9:4B:34:2D:FF:8A:F6:B3:19:D3:30:1A
            X509v3 Authority Key Identifier: 
                keyid:1C:9B:85:B5:C1:BC:32:05:A0:57:E8:34:12:59:FD:53:BD:73:52:6C

    Signature Algorithm: sha256WithRSAEncryption
         15:0e:cf:92:de:8b:e8:4c:ab:c2:ab:6c:db:59:a2:3b:c5:05:
         c3:5c:41:d5:02:76:72:06:4e:9b:65:a5:13:ae:0e:9e:41:56:
         70:9a:60:a7:31:58:52:f1:a4:c1:f5:5c:5e:0e:5a:30:2f:ff:
         94:a7:ae:64:61:21:08:cf:a1:0b:3e:43:16:b4:5e:eb:15:8d:
         ba:b8:32:f0:41:27:a7:d4:48:bd:5a:33:34:2d:fc:0a:c2:5c:
         4e:9f:5f:f8:ff:b2:33:5e:f3:29:1c:a1:8e:1e:3e:ab:83:de:
         cb:a8:dc:2d:09:46:f8:10:72:24:a7:76:fc:e0:59:dd:6c:4c:
         6e:5e
-----BEGIN CERTIFICATE-----
MIIDKTCCApKgAwIBAgIBATANBgkqhkiG9w0BAQsFADBTMQswCQYDVQQGEwJGUjEM
MAoGA1UECAwDSURGMQ4wDAYDVQQHDAVQYXJpczERMA8GA1UECgwIRm9vYmFyQ0Ex
EzARBgNVBAMMCioubG9jYWwuZnIwHhcNMTUwODEzMDgwMDAwWhcNMjUwODEzMDkw
MDAwWjBhMQswCQYDVQQGEwJGUjEMMAoGA1UECBMDSURGMQ4wDAYDVQQHEwVQYXJp
czEPMA0GA1UEChMGRm9vYmFyMQkwBwYDVQQLEwAxGDAWBgNVBAMTD2Zvb2Jhci5s
b2NhbC5mcjCCASIwDQYJKoZIhvcNAQEBBQADggEPADCCAQoCggEBAJ72dq0h9MIX
pJZ/rK43ofPjMhxeI+HXf8+Fy3susZYYMZxZy0OZSN9yDXc1f8um2nhHj8NHchtX
3zn0jSJNk8qlAdnRl8CDNAm72wpd8Dxh47kV2lp2VvpSzRMgq3n09oMhiYScB9DL
3prh5RssC00fx0KGZvoNEUgz9Suky+YRl3GB2UGYwoWeu7Jp1MlD192OvcbxCccL
nN9Ps6gGAFuCgIi6BBIs/GTgoMDI0bYDGL12YiweWiJa4ADbrik4pNpL1ZBcw1QE
W9OyqVzuBM1TDe+NFRKdREiEN83S8kSe5aGz++2/j3xa6kr+d6BmVjLYPA21sRhW
33Wt+YaG/B0CAwEAAaN7MHkwCQYDVR0TBAIwADAsBglghkgBhvhCAQ0EHxYdT3Bl
blNTTCBHZW5lcmF0ZWQgQ2VydGlmaWNhdGUwHQYDVR0OBBYEFDDC/Dk+cOt5+Us0
Lf+K9rMZ0zAaMB8GA1UdIwQYMBaAFBybhbXBvDIFoFfoNBJZ/VO9c1JsMA0GCSqG
SIb3DQEBCwUAA4GBABUOz5Lei+hMq8KrbNtZojvFBcNcQdUCdnIGTptlpROuDp5B
VnCaYKcxWFLxpMH1XF4OWjAv/5SnrmRhIQjPoQs+Qxa0XusVjbq4MvBBJ6fUSL1a
MzQt/ArCXE6fX/j/sjNe8ykcoY4ePquD3suo3C0JRvgQciSndvzgWd1sTG5e
-----END CERTIFICATE-----
