Certificate:
    Data:
        Version: 3 (0x2)
        Serial Number: 2 (0x2)
    Signature Algorithm: sha256WithRSAEncryption
        Issuer: C=FR, ST=IDF, L=Paris, O=FoobarCA, CN=*.local.fr
        Validity
            Not Before: Jan 26 08:11:53 2016 GMT
            Not After : Jan 25 08:11:53 2017 GMT
        Subject: C=FR, ST=IDF, L=Paris, O=browser, OU=, CN=browser.local.fr
        Subject Public Key Info:
            Public Key Algorithm: rsaEncryption
                Public-Key: (2048 bit)
                Modulus:
                    00:89:ed:b6:14:17:27:bd:7b:c0:f1:dc:2b:fe:b3:
                    01:f4:a9:0d:af:ca:be:55:bb:52:73:03:ec:e6:1d:
                    1b:14:25:38:ac:48:90:ef:98:a0:96:41:42:ab:0f:
                    bf:5f:a5:79:34:4f:2e:ee:27:53:b4:c8:96:fc:83:
                    3c:2c:fc:e5:04:f9:1a:9c:36:4a:2f:b3:23:78:de:
                    40:88:80:cd:05:fb:6f:2e:f2:86:e6:30:46:79:c1:
                    57:db:ea:67:58:d9:00:f8:09:9d:18:11:5b:9c:94:
                    ae:cc:cf:c5:2b:ae:2e:0c:a3:0a:a4:34:2f:b1:5c:
                    d5:36:f8:52:23:5e:8d:e1:34:c9:0f:21:62:cc:9f:
                    51:37:8d:1d:ad:92:ea:e0:15:0d:e8:80:37:66:87:
                    9d:8d:37:a1:e6:e7:76:38:c9:68:8c:d6:79:a5:23:
                    2d:63:e7:a1:f6:e4:ce:c6:84:1f:eb:68:35:a0:83:
                    fe:12:03:40:c0:fc:1d:47:bc:52:03:c1:8b:84:33:
                    d6:4a:7e:2c:14:de:da:42:a1:ff:6d:d6:6d:12:06:
                    a6:5e:18:cf:f7:06:3c:ef:66:59:50:20:d3:64:49:
                    12:9d:5e:b1:5e:53:47:d2:7e:e6:19:32:66:38:6d:
                    ec:ac:68:2d:51:ce:78:e8:92:d2:35:32:d3:8d:f0:
                    48:15
                Exponent: 65537 (0x10001)
        X509v3 extensions:
            X509v3 Basic Constraints: 
                CA:FALSE
            Netscape Comment: 
                OpenSSL Generated Certificate
            X509v3 Subject Key Identifier: 
                F2:D5:A3:F1:B7:E8:2A:F1:4B:E7:7E:3D:A9:F5:5D:48:88:95:63:0B
            X509v3 Authority Key Identifier: 
                keyid:1C:9B:85:B5:C1:BC:32:05:A0:57:E8:34:12:59:FD:53:BD:73:52:6C

    Signature Algorithm: sha256WithRSAEncryption
         95:2f:54:63:7f:5b:97:c9:f5:38:26:36:22:63:64:82:ce:c5:
         d9:a6:74:82:dc:24:43:f6:84:82:f1:5f:09:6f:c2:37:0d:de:
         0a:f9:26:58:a6:48:43:ff:89:ac:9b:4a:b1:f6:3d:03:ae:f8:
         5f:30:e4:2c:66:a4:b9:f7:89:5f:e7:04:b4:0d:4c:88:53:36:
         70:2e:26:73:fb:40:0a:62:fd:a4:26:e0:dc:6c:3d:93:01:70:
         87:0b:30:2b:f2:56:0e:5d:0d:80:9b:bb:38:23:7c:ef:d6:2b:
         c2:aa:a0:c0:4c:39:79:5d:3b:dd:0e:73:24:f8:06:4d:21:91:
         c0:b4
-----BEGIN CERTIFICATE-----
MIIDKzCCApSgAwIBAgIBAjANBgkqhkiG9w0BAQsFADBTMQswCQYDVQQGEwJGUjEM
MAoGA1UECAwDSURGMQ4wDAYDVQQHDAVQYXJpczERMA8GA1UECgwIRm9vYmFyQ0Ex
EzARBgNVBAMMCioubG9jYWwuZnIwHhcNMTYwMTI2MDgxMTUzWhcNMTcwMTI1MDgx
MTUzWjBjMQswCQYDVQQGEwJGUjEMMAoGA1UECBMDSURGMQ4wDAYDVQQHEwVQYXJp
czEQMA4GA1UEChMHYnJvd3NlcjEJMAcGA1UECxMAMRkwFwYDVQQDExBicm93c2Vy
LmxvY2FsLmZyMIIBIjANBgkqhkiG9w0BAQEFAAOCAQ8AMIIBCgKCAQEAie22FBcn
vXvA8dwr/rMB9KkNr8q+VbtScwPs5h0bFCU4rEiQ75iglkFCqw+/X6V5NE8u7idT
tMiW/IM8LPzlBPkanDZKL7MjeN5AiIDNBftvLvKG5jBGecFX2+pnWNkA+AmdGBFb
nJSuzM/FK64uDKMKpDQvsVzVNvhSI16N4TTJDyFizJ9RN40drZLq4BUN6IA3Zoed
jTeh5ud2OMlojNZ5pSMtY+eh9uTOxoQf62g1oIP+EgNAwPwdR7xSA8GLhDPWSn4s
FN7aQqH/bdZtEgamXhjP9wY872ZZUCDTZEkSnV6xXlNH0n7mGTJmOG3srGgtUc54
6JLSNTLTjfBIFQIDAQABo3sweTAJBgNVHRMEAjAAMCwGCWCGSAGG+EIBDQQfFh1P
cGVuU1NMIEdlbmVyYXRlZCBDZXJ0aWZpY2F0ZTAdBgNVHQ4EFgQU8tWj8bfoKvFL
5349qfVdSIiVYwswHwYDVR0jBBgwFoAUHJuFtcG8MgWgV+g0Eln9U71zUmwwDQYJ
KoZIhvcNAQELBQADgYEAlS9UY39bl8n1OCY2ImNkgs7F2aZ0gtwkQ/aEgvFfCW/C
Nw3eCvkmWKZIQ/+JrJtKsfY9A674XzDkLGakufeJX+cEtA1MiFM2cC4mc/tACmL9
pCbg3Gw9kwFwhwswK/JWDl0NgJu7OCN879YrwqqgwEw5eV073Q5zJPgGTSGRwLQ=
-----END CERTIFICATE-----
